target datalayout = "e-m:e-p270:32:32-p271:32:32-p272:64:64-i64:64-i128:128-f80:128-n8:16:32:64-S128"
target triple = "x86_64-pc-linux-gnu"

%struct.decContext = type { i32, i32, i32, i32, i32, i32, i8 }

; Function Attrs: mustprogress nounwind uwtable
define ptr @uprv_decContextSetStatus_77(ptr noundef %0, i32 noundef %1) #0 {
  %3 = alloca ptr, align 8
  %4 = alloca i32, align 4
  store ptr %0, ptr %3, align 8, !tbaa !3
  store i32 %1, ptr %4, align 4, !tbaa !7
  %5 = load i32, ptr %4, align 4, !tbaa !7
  %6 = load ptr, ptr %3, align 8, !tbaa !3
  %7 = getelementptr inbounds nuw %struct.decContext, ptr %6, i32 0, i32 5
  %8 = load i32, ptr %7, align 4, !tbaa !9
  %9 = or i32 %8, %5
  store i32 %9, ptr %7, align 4, !tbaa !9
  %10 = load ptr, ptr %3, align 8, !tbaa !3
  ret ptr %10
}

; Function Attrs: mustprogress uwtable
define ptr @uprv_decContextDefault_77(ptr noundef %0, i32 noundef %1) #1 {
  %3 = alloca ptr, align 8
  %4 = alloca i32, align 4
  store ptr %0, ptr %3, align 8, !tbaa !3
  store i32 %1, ptr %4, align 4, !tbaa !7
  %5 = load ptr, ptr %3, align 8, !tbaa !3
  %6 = getelementptr inbounds nuw %struct.decContext, ptr %5, i32 0, i32 0
  store i32 9, ptr %6, align 4, !tbaa !12
  %7 = load ptr, ptr %3, align 8, !tbaa !3
  %8 = getelementptr inbounds nuw %struct.decContext, ptr %7, i32 0, i32 1
  store i32 999999999, ptr %8, align 4, !tbaa !13
  %9 = load ptr, ptr %3, align 8, !tbaa !3
  %10 = getelementptr inbounds nuw %struct.decContext, ptr %9, i32 0, i32 2
  store i32 -999999999, ptr %10, align 4, !tbaa !14
  %11 = load ptr, ptr %3, align 8, !tbaa !3
  %12 = getelementptr inbounds nuw %struct.decContext, ptr %11, i32 0, i32 3
  store i32 2, ptr %12, align 4, !tbaa !15
  %13 = load ptr, ptr %3, align 8, !tbaa !3
  %14 = getelementptr inbounds nuw %struct.decContext, ptr %13, i32 0, i32 4
  store i32 8927, ptr %14, align 4, !tbaa !16
  %15 = load ptr, ptr %3, align 8, !tbaa !3
  %16 = getelementptr inbounds nuw %struct.decContext, ptr %15, i32 0, i32 5
  store i32 0, ptr %16, align 4, !tbaa !9
  %17 = load ptr, ptr %3, align 8, !tbaa !3
  %18 = getelementptr inbounds nuw %struct.decContext, ptr %17, i32 0, i32 6
  store i8 0, ptr %18, align 4, !tbaa !17
  %19 = load i32, ptr %4, align 4, !tbaa !7
  switch i32 %19, label %59 [
    i32 0, label %62
    i32 32, label %20
    i32 64, label %33
    i32 128, label %46
  ]

20:                                               ; preds = %2
  %21 = load ptr, ptr %3, align 8, !tbaa !3
  %22 = getelementptr inbounds nuw %struct.decContext, ptr %21, i32 0, i32 0
  store i32 7, ptr %22, align 4, !tbaa !12
  %23 = load ptr, ptr %3, align 8, !tbaa !3
  %24 = getelementptr inbounds nuw %struct.decContext, ptr %23, i32 0, i32 1
  store i32 96, ptr %24, align 4, !tbaa !13
  %25 = load ptr, ptr %3, align 8, !tbaa !3
  %26 = getelementptr inbounds nuw %struct.decContext, ptr %25, i32 0, i32 2
  store i32 -95, ptr %26, align 4, !tbaa !14
  %27 = load ptr, ptr %3, align 8, !tbaa !3
  %28 = getelementptr inbounds nuw %struct.decContext, ptr %27, i32 0, i32 3
  store i32 3, ptr %28, align 4, !tbaa !15
  %29 = load ptr, ptr %3, align 8, !tbaa !3
  %30 = getelementptr inbounds nuw %struct.decContext, ptr %29, i32 0, i32 4
  store i32 0, ptr %30, align 4, !tbaa !16
  %31 = load ptr, ptr %3, align 8, !tbaa !3
  %32 = getelementptr inbounds nuw %struct.decContext, ptr %31, i32 0, i32 6
  store i8 1, ptr %32, align 4, !tbaa !17
  br label %62

33:                                               ; preds = %2
  %34 = load ptr, ptr %3, align 8, !tbaa !3
  %35 = getelementptr inbounds nuw %struct.decContext, ptr %34, i32 0, i32 0
  store i32 16, ptr %35, align 4, !tbaa !12
  %36 = load ptr, ptr %3, align 8, !tbaa !3
  %37 = getelementptr inbounds nuw %struct.decContext, ptr %36, i32 0, i32 1
  store i32 384, ptr %37, align 4, !tbaa !13
  %38 = load ptr, ptr %3, align 8, !tbaa !3
  %39 = getelementptr inbounds nuw %struct.decContext, ptr %38, i32 0, i32 2
  store i32 -383, ptr %39, align 4, !tbaa !14
  %40 = load ptr, ptr %3, align 8, !tbaa !3
  %41 = getelementptr inbounds nuw %struct.decContext, ptr %40, i32 0, i32 3
  store i32 3, ptr %41, align 4, !tbaa !15
  %42 = load ptr, ptr %3, align 8, !tbaa !3
  %43 = getelementptr inbounds nuw %struct.decContext, ptr %42, i32 0, i32 4
  store i32 0, ptr %43, align 4, !tbaa !16
  %44 = load ptr, ptr %3, align 8, !tbaa !3
  %45 = getelementptr inbounds nuw %struct.decContext, ptr %44, i32 0, i32 6
  store i8 1, ptr %45, align 4, !tbaa !17
  br label %62

46:                                               ; preds = %2
  %47 = load ptr, ptr %3, align 8, !tbaa !3
  %48 = getelementptr inbounds nuw %struct.decContext, ptr %47, i32 0, i32 0
  store i32 34, ptr %48, align 4, !tbaa !12
  %49 = load ptr, ptr %3, align 8, !tbaa !3
  %50 = getelementptr inbounds nuw %struct.decContext, ptr %49, i32 0, i32 1
  store i32 6144, ptr %50, align 4, !tbaa !13
  %51 = load ptr, ptr %3, align 8, !tbaa !3
  %52 = getelementptr inbounds nuw %struct.decContext, ptr %51, i32 0, i32 2
  store i32 -6143, ptr %52, align 4, !tbaa !14
  %53 = load ptr, ptr %3, align 8, !tbaa !3
  %54 = getelementptr inbounds nuw %struct.decContext, ptr %53, i32 0, i32 3
  store i32 3, ptr %54, align 4, !tbaa !15
  %55 = load ptr, ptr %3, align 8, !tbaa !3
  %56 = getelementptr inbounds nuw %struct.decContext, ptr %55, i32 0, i32 4
  store i32 0, ptr %56, align 4, !tbaa !16
  %57 = load ptr, ptr %3, align 8, !tbaa !3
  %58 = getelementptr inbounds nuw %struct.decContext, ptr %57, i32 0, i32 6
  store i8 1, ptr %58, align 4, !tbaa !17
  br label %62

59:                                               ; preds = %2
  %60 = load ptr, ptr %3, align 8, !tbaa !3
  %61 = call ptr @uprv_decContextSetStatus_77(ptr noundef %60, i32 noundef 128)
  br label %62

62:                                               ; preds = %59, %46, %33, %20, %2
  %63 = load ptr, ptr %3, align 8, !tbaa !3
  ret ptr %63
}