; Function Attrs: mustprogress nofree norecurse nosync nounwind willreturn memory(argmem: write) uwtable
define noundef ptr @uprv_decContextDefault_77(ptr noundef returned writeonly initializes((0, 25)) %0, i32 noundef %1) local_unnamed_addr #1 {
  store i32 9, ptr %0, align 4, !tbaa !9
  %3 = getelementptr inbounds nuw i8, ptr %0, i64 4
  store i32 999999999, ptr %3, align 4, !tbaa !10
  %4 = getelementptr inbounds nuw i8, ptr %0, i64 8
  store i32 -999999999, ptr %4, align 4, !tbaa !11
  %5 = getelementptr inbounds nuw i8, ptr %0, i64 12
  store i32 2, ptr %5, align 4, !tbaa !12
  %6 = getelementptr inbounds nuw i8, ptr %0, i64 16
  store i32 8927, ptr %6, align 4, !tbaa !13
  %7 = getelementptr inbounds nuw i8, ptr %0, i64 20
  store i32 0, ptr %7, align 4, !tbaa !3
  %8 = getelementptr inbounds nuw i8, ptr %0, i64 24
  store i8 0, ptr %8, align 4, !tbaa !14
  %9 = tail call i32 @llvm.fshl.i32(i32 %1, i32 %1, i32 27)
  switch i32 %9, label %13 [
    i32 0, label %14
    i32 1, label %10
    i32 2, label %11
    i32 4, label %12
  ]

10:                                               ; preds = %2
  store i32 7, ptr %0, align 4, !tbaa !9
  store i32 96, ptr %3, align 4, !tbaa !10
  store i32 -95, ptr %4, align 4, !tbaa !11
  store i32 3, ptr %5, align 4, !tbaa !12
  store i32 0, ptr %6, align 4, !tbaa !13
  store i8 1, ptr %8, align 4, !tbaa !14
  br label %14

11:                                               ; preds = %2
  store i32 16, ptr %0, align 4, !tbaa !9
  store i32 384, ptr %3, align 4, !tbaa !10
  store i32 -383, ptr %4, align 4, !tbaa !11
  store i32 3, ptr %5, align 4, !tbaa !12
  store i32 0, ptr %6, align 4, !tbaa !13
  store i8 1, ptr %8, align 4, !tbaa !14
  br label %14

12:                                               ; preds = %2
  store i32 34, ptr %0, align 4, !tbaa !9
  store i32 6144, ptr %3, align 4, !tbaa !10
  store i32 -6143, ptr %4, align 4, !tbaa !11
  store i32 3, ptr %5, align 4, !tbaa !12
  store i32 0, ptr %6, align 4, !tbaa !13
  store i8 1, ptr %8, align 4, !tbaa !14
  br label %14

13:                                               ; preds = %2
  store i32 128, ptr %7, align 4, !tbaa !3
  br label %14

14:                                               ; preds = %13, %12, %11, %10, %2
  ret ptr %0
}